LIBRARY	"C4DLL"
EXPORTS
	_c4ltoa45@12			= ?ex_c4ltoa45@@YGXXZ				PRIVATE
	_c4dtoa45@20			= ?ex_c4dtoa45@@YGXXZ				PRIVATE
	_c4atod@8				= ?ex_c4atod@@YGXXZ				PRIVATE
	_c4atol@8				= ?ex_c4atol@@YGXXZ				PRIVATE
	_f4ptr@4				= ?ex_f4ptr@@YGXXZ				PRIVATE
	_f4name@4				= ?ex_f4name@@YGXXZ				PRIVATE
	_f4type@4				= ?ex_f4type@@YGXXZ				PRIVATE
	_f4len@4				= ?ex_f4len@@YGXXZ				PRIVATE
	_f4decimals@4			= ?ex_f4decimals@@YGXXZ			PRIVATE
	_d4delete@4				= ?ex_d4delete@@YGXXZ				PRIVATE
	_d4close@4				= ?ex_d4close@@YGXXZ				PRIVATE
	_d4pack@4				= ?ex_d4pack@@YGXXZ				PRIVATE
	_d4fieldJ@8				= ?ex_d4fieldJ@@YGXXZ				PRIVATE
	_d4numFields@4			= ?ex_d4numFields@@YGXXZ			PRIVATE
	_d4open@8				= ?ex_d4open@@YGXXZ				PRIVATE
	_d4openClone@4			= ?ex_d4openClone@@YGXXZ			PRIVATE
	_d4appendBlank@4		= ?ex_d4appendBlank@@YGXXZ		PRIVATE
	_d4bof@4				= ?ex_d4bof@@YGXXZ				PRIVATE
	_d4eof@4				= ?ex_d4eof@@YGXXZ				PRIVATE
	_d4deleted@4			= ?ex_d4deleted@@YGXXZ			PRIVATE
	_d4goBof@4				= ?ex_d4goBof@@YGXXZ				PRIVATE
	_d4skip@8				= ?ex_d4skip@@YGXXZ				PRIVATE
	_d4lockAll@4			= ?ex_d4lockAll@@YGXXZ			PRIVATE
	_d4unlock@4				= ?ex_d4unlock@@YGXXZ				PRIVATE
	_d4changed@8			= ?ex_d4changed@@YGXXZ			PRIVATE
	_d4field@8				= ?ex_d4field@@YGXXZ				PRIVATE
	_u4freeDefault@4		= ?ex_u4freeDefault@@YGXXZ		PRIVATE
	_code4optStart@4		= ?ex_code4optStart@@YGXXZ		PRIVATE
	_code4initLow@12		= ?ex_code4initLow@@YGXXZ			PRIVATE
	_code4initUndo@4		= ?ex_code4initUndo@@YGXXZ		PRIVATE
	_code4close@4			= ?ex_code4close@@YGXXZ			PRIVATE
	_error4text@8			= ?ex_error4text@@YGXXZ			PRIVATE
	_error4default@12		= ?ex_error4default@@YGXXZ		PRIVATE
	_expr4parseLow@12		= ?ex_expr4parseLow@@YGXXZ		PRIVATE
	_expr4source@4			= ?ex_expr4source@@YGXXZ			PRIVATE
	_expr4true@4			= ?ex_expr4true@@YGXXZ			PRIVATE